target datalayout = "e-m:e-p270:32:32-p271:32:32-p272:64:64-i64:64-i128:128-f80:128-n8:16:32:64-S128"
target triple = "x86_64-pc-linux-gnu"

%struct.ct_data_s = type { %union.anon, %union.anon.0 }
%union.anon = type { i16 }
%union.anon.0 = type { i16 }
%struct.MOZ_Z_internal_state = type { ptr, i32, ptr, i64, ptr, i32, i32, ptr, i32, i8, i32, [12 x i8], [20 x i32], i32, i32, i32, ptr, i64, ptr, ptr, i32, i32, i32, i32, i32, ptr, [256 x i32], i64, i32, i32, i32, i32, i32, i32, i32, i32, i32, i32, i32, i32, i32, [573 x %struct.ct_data_s], [61 x %struct.ct_data_s], [39 x %struct.ct_data_s], %struct.tree_desc_s, %struct.tree_desc_s, %struct.tree_desc_s, [16 x i16], [573 x i32], i32, i32, [573 x i8], ptr, i32, i32, ptr, i64, i64, i32, i32, i16, i32, i64, [8 x i8] }
%struct.tree_desc_s = type { ptr, i32, ptr }

; Function Attrs: nounwind uwtable
define internal void @bi_windup(ptr noundef %0) #0 {
  %2 = alloca ptr, align 8
  store ptr %0, ptr %2, align 8, !tbaa !3
  %3 = load ptr, ptr %2, align 8, !tbaa !3
  %4 = getelementptr inbounds nuw %struct.MOZ_Z_internal_state, ptr %3, i32 0, i32 61
  %5 = load i32, ptr %4, align 4, !tbaa !26
  %6 = icmp sgt i32 %5, 8
  br i1 %6, label %7, label %38

7:                                                ; preds = %1
  %8 = load ptr, ptr %2, align 8, !tbaa !3
  %9 = getelementptr inbounds nuw %struct.MOZ_Z_internal_state, ptr %8, i32 0, i32 60
  %10 = load i16, ptr %9, align 8, !tbaa !25
  %11 = zext i16 %10 to i32
  %12 = and i32 %11, 255
  %13 = trunc i32 %12 to i8
  %14 = load ptr, ptr %2, align 8, !tbaa !3
  %15 = getelementptr inbounds nuw %struct.MOZ_Z_internal_state, ptr %14, i32 0, i32 2
  %16 = load ptr, ptr %15, align 16, !tbaa !39
  %17 = load ptr, ptr %2, align 8, !tbaa !3
  %18 = getelementptr inbounds nuw %struct.MOZ_Z_internal_state, ptr %17, i32 0, i32 5
  %19 = load i32, ptr %18, align 8, !tbaa !40
  %20 = add i32 %19, 1
  store i32 %20, ptr %18, align 8, !tbaa !40
  %21 = zext i32 %19 to i64
  %22 = getelementptr inbounds nuw i8, ptr %16, i64 %21
  store i8 %13, ptr %22, align 1, !tbaa !28
  %23 = load ptr, ptr %2, align 8, !tbaa !3
  %24 = getelementptr inbounds nuw %struct.MOZ_Z_internal_state, ptr %23, i32 0, i32 60
  %25 = load i16, ptr %24, align 8, !tbaa !25
  %26 = zext i16 %25 to i32
  %27 = ashr i32 %26, 8
  %28 = trunc i32 %27 to i8
  %29 = load ptr, ptr %2, align 8, !tbaa !3
  %30 = getelementptr inbounds nuw %struct.MOZ_Z_internal_state, ptr %29, i32 0, i32 2
  %31 = load ptr, ptr %30, align 16, !tbaa !39
  %32 = load ptr, ptr %2, align 8, !tbaa !3
  %33 = getelementptr inbounds nuw %struct.MOZ_Z_internal_state, ptr %32, i32 0, i32 5
  %34 = load i32, ptr %33, align 8, !tbaa !40
  %35 = add i32 %34, 1
  store i32 %35, ptr %33, align 8, !tbaa !40
  %36 = zext i32 %34 to i64
  %37 = getelementptr inbounds nuw i8, ptr %31, i64 %36
  store i8 %28, ptr %37, align 1, !tbaa !28
  br label %58

38:                                               ; preds = %1
  %39 = load ptr, ptr %2, align 8, !tbaa !3
  %40 = getelementptr inbounds nuw %struct.MOZ_Z_internal_state, ptr %39, i32 0, i32 61
  %41 = load i32, ptr %40, align 4, !tbaa !26
  %42 = icmp sgt i32 %41, 0
  br i1 %42, label %43, label %57

43:                                               ; preds = %38
  %44 = load ptr, ptr %2, align 8, !tbaa !3
  %45 = getelementptr inbounds nuw %struct.MOZ_Z_internal_state, ptr %44, i32 0, i32 60
  %46 = load i16, ptr %45, align 8, !tbaa !25
  %47 = trunc i16 %46 to i8
  %48 = load ptr, ptr %2, align 8, !tbaa !3
  %49 = getelementptr inbounds nuw %struct.MOZ_Z_internal_state, ptr %48, i32 0, i32 2
  %50 = load ptr, ptr %49, align 16, !tbaa !39
  %51 = load ptr, ptr %2, align 8, !tbaa !3
  %52 = getelementptr inbounds nuw %struct.MOZ_Z_internal_state, ptr %51, i32 0, i32 5
  %53 = load i32, ptr %52, align 8, !tbaa !40
  %54 = add i32 %53, 1
  store i32 %54, ptr %52, align 8, !tbaa !40
  %55 = zext i32 %53 to i64
  %56 = getelementptr inbounds nuw i8, ptr %50, i64 %55
  store i8 %47, ptr %56, align 1, !tbaa !28
  br label %57

57:                                               ; preds = %43, %38
  br label %58

58:                                               ; preds = %57, %7
  %59 = load ptr, ptr %2, align 8, !tbaa !3
  %60 = getelementptr inbounds nuw %struct.MOZ_Z_internal_state, ptr %59, i32 0, i32 60
  store i16 0, ptr %60, align 8, !tbaa !25
  %61 = load ptr, ptr %2, align 8, !tbaa !3
  %62 = getelementptr inbounds nuw %struct.MOZ_Z_internal_state, ptr %61, i32 0, i32 61
  store i32 0, ptr %62, align 4, !tbaa !26
  ret void
}

; Function Attrs: nounwind uwtable
define internal void @copy_block(ptr noundef %0, ptr noundef %1, i32 noundef %2, i32 noundef %3) #0 {
  %5 = alloca ptr, align 8
  %6 = alloca ptr, align 8
  %7 = alloca i32, align 4
  %8 = alloca i32, align 4
  store ptr %0, ptr %5, align 8, !tbaa !3
  store ptr %1, ptr %6, align 8, !tbaa !37
  store i32 %2, ptr %7, align 4, !tbaa !27
  store i32 %3, ptr %8, align 4, !tbaa !27
  %9 = load ptr, ptr %5, align 8, !tbaa !3
  call void @bi_windup(ptr noundef %9)
  %10 = load i32, ptr %8, align 4, !tbaa !27
  %11 = icmp ne i32 %10, 0
  br i1 %11, label %12, label %71

12:                                               ; preds = %4
  %13 = load i32, ptr %7, align 4, !tbaa !27
  %14 = trunc i32 %13 to i16
  %15 = zext i16 %14 to i32
  %16 = and i32 %15, 255
  %17 = trunc i32 %16 to i8
  %18 = load ptr, ptr %5, align 8, !tbaa !3
  %19 = getelementptr inbounds nuw %struct.MOZ_Z_internal_state, ptr %18, i32 0, i32 2
  %20 = load ptr, ptr %19, align 16, !tbaa !39
  %21 = load ptr, ptr %5, align 8, !tbaa !3
  %22 = getelementptr inbounds nuw %struct.MOZ_Z_internal_state, ptr %21, i32 0, i32 5
  %23 = load i32, ptr %22, align 8, !tbaa !40
  %24 = add i32 %23, 1
  store i32 %24, ptr %22, align 8, !tbaa !40
  %25 = zext i32 %23 to i64
  %26 = getelementptr inbounds nuw i8, ptr %20, i64 %25
  store i8 %17, ptr %26, align 1, !tbaa !28
  %27 = load i32, ptr %7, align 4, !tbaa !27
  %28 = trunc i32 %27 to i16
  %29 = zext i16 %28 to i32
  %30 = ashr i32 %29, 8
  %31 = trunc i32 %30 to i8
  %32 = load ptr, ptr %5, align 8, !tbaa !3
  %33 = getelementptr inbounds nuw %struct.MOZ_Z_internal_state, ptr %32, i32 0, i32 2
  %34 = load ptr, ptr %33, align 16, !tbaa !39
  %35 = load ptr, ptr %5, align 8, !tbaa !3
  %36 = getelementptr inbounds nuw %struct.MOZ_Z_internal_state, ptr %35, i32 0, i32 5
  %37 = load i32, ptr %36, align 8, !tbaa !40
  %38 = add i32 %37, 1
  store i32 %38, ptr %36, align 8, !tbaa !40
  %39 = zext i32 %37 to i64
  %40 = getelementptr inbounds nuw i8, ptr %34, i64 %39
  store i8 %31, ptr %40, align 1, !tbaa !28
  %41 = load i32, ptr %7, align 4, !tbaa !27
  %42 = xor i32 %41, -1
  %43 = trunc i32 %42 to i16
  %44 = zext i16 %43 to i32
  %45 = and i32 %44, 255
  %46 = trunc i32 %45 to i8
  %47 = load ptr, ptr %5, align 8, !tbaa !3
  %48 = getelementptr inbounds nuw %struct.MOZ_Z_internal_state, ptr %47, i32 0, i32 2
  %49 = load ptr, ptr %48, align 16, !tbaa !39
  %50 = load ptr, ptr %5, align 8, !tbaa !3
  %51 = getelementptr inbounds nuw %struct.MOZ_Z_internal_state, ptr %50, i32 0, i32 5
  %52 = load i32, ptr %51, align 8, !tbaa !40
  %53 = add i32 %52, 1
  store i32 %53, ptr %51, align 8, !tbaa !40
  %54 = zext i32 %52 to i64
  %55 = getelementptr inbounds nuw i8, ptr %49, i64 %54
  store i8 %46, ptr %55, align 1, !tbaa !28
  %56 = load i32, ptr %7, align 4, !tbaa !27
  %57 = xor i32 %56, -1
  %58 = trunc i32 %57 to i16
  %59 = zext i16 %58 to i32
  %60 = ashr i32 %59, 8
  %61 = trunc i32 %60 to i8
  %62 = load ptr, ptr %5, align 8, !tbaa !3
  %63 = getelementptr inbounds nuw %struct.MOZ_Z_internal_state, ptr %62, i32 0, i32 2
  %64 = load ptr, ptr %63, align 16, !tbaa !39
  %65 = load ptr, ptr %5, align 8, !tbaa !3
  %66 = getelementptr inbounds nuw %struct.MOZ_Z_internal_state, ptr %65, i32 0, i32 5
  %67 = load i32, ptr %66, align 8, !tbaa !40
  %68 = add i32 %67, 1
  store i32 %68, ptr %66, align 8, !tbaa !40
  %69 = zext i32 %67 to i64
  %70 = getelementptr inbounds nuw i8, ptr %64, i64 %69
  store i8 %61, ptr %70, align 1, !tbaa !28
  br label %71

71:                                               ; preds = %12, %4
  br label %72

72:                                               ; preds = %76, %71
  %73 = load i32, ptr %7, align 4, !tbaa !27
  %74 = add i32 %73, -1
  store i32 %74, ptr %7, align 4, !tbaa !27
  %75 = icmp ne i32 %73, 0
  br i1 %75, label %76, label %89

76:                                               ; preds = %72
  %77 = load ptr, ptr %6, align 8, !tbaa !37
  %78 = getelementptr inbounds nuw i8, ptr %77, i32 1
  store ptr %78, ptr %6, align 8, !tbaa !37
  %79 = load i8, ptr %77, align 1, !tbaa !28
  %80 = load ptr, ptr %5, align 8, !tbaa !3
  %81 = getelementptr inbounds nuw %struct.MOZ_Z_internal_state, ptr %80, i32 0, i32 2
  %82 = load ptr, ptr %81, align 16, !tbaa !39
  %83 = load ptr, ptr %5, align 8, !tbaa !3
  %84 = getelementptr inbounds nuw %struct.MOZ_Z_internal_state, ptr %83, i32 0, i32 5
  %85 = load i32, ptr %84, align 8, !tbaa !40
  %86 = add i32 %85, 1
  store i32 %86, ptr %84, align 8, !tbaa !40
  %87 = zext i32 %85 to i64
  %88 = getelementptr inbounds nuw i8, ptr %82, i64 %87
  store i8 %79, ptr %88, align 1, !tbaa !28
  br label %72, !llvm.loop !41

89:                                               ; preds = %72
  ret void
}

; Function Attrs: nounwind uwtable
define void @MOZ_Z__tr_stored_block(ptr noundef %0, ptr noundef %1, i64 noundef %2, i32 noundef %3) #0 {
  %5 = alloca ptr, align 8
  %6 = alloca ptr, align 8
  %7 = alloca i64, align 8
  %8 = alloca i32, align 4
  %9 = alloca i32, align 4
  %10 = alloca i32, align 4
  store ptr %0, ptr %5, align 8, !tbaa !3
  store ptr %1, ptr %6, align 8, !tbaa !37
  store i64 %2, ptr %7, align 8, !tbaa !38
  store i32 %3, ptr %8, align 4, !tbaa !27
  call void @llvm.lifetime.start.p0(i64 4, ptr %9) #2
  store i32 3, ptr %9, align 4, !tbaa !27
  %11 = load ptr, ptr %5, align 8, !tbaa !3
  %12 = getelementptr inbounds nuw %struct.MOZ_Z_internal_state, ptr %11, i32 0, i32 61
  %13 = load i32, ptr %12, align 4, !tbaa !26
  %14 = load i32, ptr %9, align 4, !tbaa !27
  %15 = sub nsw i32 16, %14
  %16 = icmp sgt i32 %13, %15
  br i1 %16, label %17, label %80

17:                                               ; preds = %4
  call void @llvm.lifetime.start.p0(i64 4, ptr %10) #2
  %18 = load i32, ptr %8, align 4, !tbaa !27
  %19 = add nsw i32 0, %18
  store i32 %19, ptr %10, align 4, !tbaa !27
  %20 = load i32, ptr %10, align 4, !tbaa !27
  %21 = trunc i32 %20 to i16
  %22 = zext i16 %21 to i32
  %23 = load ptr, ptr %5, align 8, !tbaa !3
  %24 = getelementptr inbounds nuw %struct.MOZ_Z_internal_state, ptr %23, i32 0, i32 61
  %25 = load i32, ptr %24, align 4, !tbaa !26
  %26 = shl i32 %22, %25
  %27 = load ptr, ptr %5, align 8, !tbaa !3
  %28 = getelementptr inbounds nuw %struct.MOZ_Z_internal_state, ptr %27, i32 0, i32 60
  %29 = load i16, ptr %28, align 8, !tbaa !25
  %30 = zext i16 %29 to i32
  %31 = or i32 %30, %26
  %32 = trunc i32 %31 to i16
  store i16 %32, ptr %28, align 8, !tbaa !25
  %33 = load ptr, ptr %5, align 8, !tbaa !3
  %34 = getelementptr inbounds nuw %struct.MOZ_Z_internal_state, ptr %33, i32 0, i32 60
  %35 = load i16, ptr %34, align 8, !tbaa !25
  %36 = zext i16 %35 to i32
  %37 = and i32 %36, 255
  %38 = trunc i32 %37 to i8
  %39 = load ptr, ptr %5, align 8, !tbaa !3
  %40 = getelementptr inbounds nuw %struct.MOZ_Z_internal_state, ptr %39, i32 0, i32 2
  %41 = load ptr, ptr %40, align 16, !tbaa !39
  %42 = load ptr, ptr %5, align 8, !tbaa !3
  %43 = getelementptr inbounds nuw %struct.MOZ_Z_internal_state, ptr %42, i32 0, i32 5
  %44 = load i32, ptr %43, align 8, !tbaa !40
  %45 = add i32 %44, 1
  store i32 %45, ptr %43, align 8, !tbaa !40
  %46 = zext i32 %44 to i64
  %47 = getelementptr inbounds nuw i8, ptr %41, i64 %46
  store i8 %38, ptr %47, align 1, !tbaa !28
  %48 = load ptr, ptr %5, align 8, !tbaa !3
  %49 = getelementptr inbounds nuw %struct.MOZ_Z_internal_state, ptr %48, i32 0, i32 60
  %50 = load i16, ptr %49, align 8, !tbaa !25
  %51 = zext i16 %50 to i32
  %52 = ashr i32 %51, 8
  %53 = trunc i32 %52 to i8
  %54 = load ptr, ptr %5, align 8, !tbaa !3
  %55 = getelementptr inbounds nuw %struct.MOZ_Z_internal_state, ptr %54, i32 0, i32 2
  %56 = load ptr, ptr %55, align 16, !tbaa !39
  %57 = load ptr, ptr %5, align 8, !tbaa !3
  %58 = getelementptr inbounds nuw %struct.MOZ_Z_internal_state, ptr %57, i32 0, i32 5
  %59 = load i32, ptr %58, align 8, !tbaa !40
  %60 = add i32 %59, 1
  store i32 %60, ptr %58, align 8, !tbaa !40
  %61 = zext i32 %59 to i64
  %62 = getelementptr inbounds nuw i8, ptr %56, i64 %61
  store i8 %53, ptr %62, align 1, !tbaa !28
  %63 = load i32, ptr %10, align 4, !tbaa !27
  %64 = trunc i32 %63 to i16
  %65 = zext i16 %64 to i32
  %66 = load ptr, ptr %5, align 8, !tbaa !3
  %67 = getelementptr inbounds nuw %struct.MOZ_Z_internal_state, ptr %66, i32 0, i32 61
  %68 = load i32, ptr %67, align 4, !tbaa !26
  %69 = sub nsw i32 16, %68
  %70 = ashr i32 %65, %69
  %71 = trunc i32 %70 to i16
  %72 = load ptr, ptr %5, align 8, !tbaa !3
  %73 = getelementptr inbounds nuw %struct.MOZ_Z_internal_state, ptr %72, i32 0, i32 60
  store i16 %71, ptr %73, align 8, !tbaa !25
  %74 = load i32, ptr %9, align 4, !tbaa !27
  %75 = sub nsw i32 %74, 16
  %76 = load ptr, ptr %5, align 8, !tbaa !3
  %77 = getelementptr inbounds nuw %struct.MOZ_Z_internal_state, ptr %76, i32 0, i32 61
  %78 = load i32, ptr %77, align 4, !tbaa !26
  %79 = add nsw i32 %78, %75
  store i32 %79, ptr %77, align 4, !tbaa !26
  call void @llvm.lifetime.end.p0(i64 4, ptr %10) #2
  br label %100

80:                                               ; preds = %4
  %81 = load i32, ptr %8, align 4, !tbaa !27
  %82 = add nsw i32 0, %81
  %83 = trunc i32 %82 to i16
  %84 = zext i16 %83 to i32
  %85 = load ptr, ptr %5, align 8, !tbaa !3
  %86 = getelementptr inbounds nuw %struct.MOZ_Z_internal_state, ptr %85, i32 0, i32 61
  %87 = load i32, ptr %86, align 4, !tbaa !26
  %88 = shl i32 %84, %87
  %89 = load ptr, ptr %5, align 8, !tbaa !3
  %90 = getelementptr inbounds nuw %struct.MOZ_Z_internal_state, ptr %89, i32 0, i32 60
  %91 = load i16, ptr %90, align 8, !tbaa !25
  %92 = zext i16 %91 to i32
  %93 = or i32 %92, %88
  %94 = trunc i32 %93 to i16
  store i16 %94, ptr %90, align 8, !tbaa !25
  %95 = load i32, ptr %9, align 4, !tbaa !27
  %96 = load ptr, ptr %5, align 8, !tbaa !3
  %97 = getelementptr inbounds nuw %struct.MOZ_Z_internal_state, ptr %96, i32 0, i32 61
  %98 = load i32, ptr %97, align 4, !tbaa !26
  %99 = add nsw i32 %98, %95
  store i32 %99, ptr %97, align 4, !tbaa !26
  br label %100

100:                                              ; preds = %80, %17
  call void @llvm.lifetime.end.p0(i64 4, ptr %9) #2
  %101 = load ptr, ptr %5, align 8, !tbaa !3
  %102 = load ptr, ptr %6, align 8, !tbaa !37
  %103 = load i64, ptr %7, align 8, !tbaa !38
  %104 = trunc i64 %103 to i32
  call void @copy_block(ptr noundef %101, ptr noundef %102, i32 noundef %104, i32 noundef 1)
  ret void
}