; Function Attrs: nofree norecurse nosync nounwind memory(write, argmem: readwrite, inaccessiblemem: none) uwtable
define void @MOZ_Z__tr_stored_block(ptr noundef captures(none) %0, ptr noundef readonly captures(none) %1, i64 noundef %2, i32 noundef %3) local_unnamed_addr #1 {
  %5 = getelementptr inbounds nuw i8, ptr %0, i64 7052
  %6 = load i32, ptr %5, align 4, !tbaa !24
  %7 = icmp sgt i32 %6, 13
  br i1 %7, label %8, label %36

8:                                                ; preds = %4
  %9 = and i32 %3, 65535
  %10 = shl i32 %3, %6
  %11 = getelementptr inbounds nuw i8, ptr %0, i64 7048
  %12 = load i16, ptr %11, align 8, !tbaa !23
  %13 = trunc i32 %10 to i16
  %14 = or i16 %12, %13
  store i16 %14, ptr %11, align 8, !tbaa !23
  %15 = trunc i16 %14 to i8
  %16 = getelementptr inbounds nuw i8, ptr %0, i64 16
  %17 = load ptr, ptr %16, align 16, !tbaa !31
  %18 = getelementptr inbounds nuw i8, ptr %0, i64 40
  %19 = load i32, ptr %18, align 8, !tbaa !32
  %20 = add i32 %19, 1
  store i32 %20, ptr %18, align 8, !tbaa !32
  %21 = zext i32 %19 to i64
  %22 = getelementptr inbounds nuw i8, ptr %17, i64 %21
  store i8 %15, ptr %22, align 1, !tbaa !25
  %23 = load i16, ptr %11, align 8, !tbaa !23
  %24 = lshr i16 %23, 8
  %25 = trunc nuw i16 %24 to i8
  %26 = load ptr, ptr %16, align 16, !tbaa !31
  %27 = load i32, ptr %18, align 8, !tbaa !32
  %28 = add i32 %27, 1
  store i32 %28, ptr %18, align 8, !tbaa !32
  %29 = zext i32 %27 to i64
  %30 = getelementptr inbounds nuw i8, ptr %26, i64 %29
  store i8 %25, ptr %30, align 1, !tbaa !25
  %31 = load i32, ptr %5, align 4, !tbaa !24
  %32 = sub nsw i32 16, %31
  %33 = lshr i32 %9, %32
  %34 = trunc nuw i32 %33 to i16
  store i16 %34, ptr %11, align 8, !tbaa !23
  %35 = add nsw i32 %31, -13
  br label %43

36:                                               ; preds = %4
  %37 = shl i32 %3, %6
  %38 = getelementptr inbounds nuw i8, ptr %0, i64 7048
  %39 = load i16, ptr %38, align 8, !tbaa !23
  %40 = trunc i32 %37 to i16
  %41 = or i16 %39, %40
  store i16 %41, ptr %38, align 8, !tbaa !23
  %42 = add nsw i32 %6, 3
  br label %43

43:                                               ; preds = %36, %8
  %44 = phi i16 [ %41, %36 ], [ %34, %8 ]
  %storemerge = phi i32 [ %42, %36 ], [ %35, %8 ]
  %45 = trunc i64 %2 to i32
  %46 = icmp sgt i32 %storemerge, 8
  br i1 %46, label %47, label %62

47:                                               ; preds = %43
  %48 = getelementptr inbounds nuw i8, ptr %0, i64 7048
  %49 = trunc i16 %44 to i8
  %50 = getelementptr inbounds nuw i8, ptr %0, i64 16
  %51 = load ptr, ptr %50, align 16, !tbaa !31
  %52 = getelementptr inbounds nuw i8, ptr %0, i64 40
  %53 = load i32, ptr %52, align 8, !tbaa !32
  %54 = add i32 %53, 1
  store i32 %54, ptr %52, align 8, !tbaa !32
  %55 = zext i32 %53 to i64
  %56 = getelementptr inbounds nuw i8, ptr %51, i64 %55
  store i8 %49, ptr %56, align 1, !tbaa !25
  %57 = load i16, ptr %48, align 8, !tbaa !23
  %58 = lshr i16 %57, 8
  %59 = load ptr, ptr %50, align 16, !tbaa !31
  %60 = load i32, ptr %52, align 8, !tbaa !32
  %61 = add i32 %60, 1
  store i32 %61, ptr %52, align 8, !tbaa !32
  br label %.sink.split.i.i

62:                                               ; preds = %43
  %63 = icmp sgt i32 %storemerge, 0
  br i1 %63, label %64, label %bi_windup.exit.i

64:                                               ; preds = %62
  %65 = getelementptr inbounds nuw i8, ptr %0, i64 16
  %66 = load ptr, ptr %65, align 16, !tbaa !31
  %67 = getelementptr inbounds nuw i8, ptr %0, i64 40
  %68 = load i32, ptr %67, align 8, !tbaa !32
  %69 = add i32 %68, 1
  store i32 %69, ptr %67, align 8, !tbaa !32
  br label %.sink.split.i.i

.sink.split.i.i:                                  ; preds = %64, %47
  %.sink16.i.i = phi i32 [ %68, %64 ], [ %60, %47 ]
  %.sink14.i.i = phi ptr [ %66, %64 ], [ %59, %47 ]
  %.sink.in.i.i = phi i16 [ %44, %64 ], [ %58, %47 ]
  %.sink.i.i = trunc i16 %.sink.in.i.i to i8
  %70 = zext i32 %.sink16.i.i to i64
  %71 = getelementptr inbounds nuw i8, ptr %.sink14.i.i, i64 %70
  store i8 %.sink.i.i, ptr %71, align 1, !tbaa !25
  br label %bi_windup.exit.i

bi_windup.exit.i:                                 ; preds = %.sink.split.i.i, %62
  %72 = getelementptr inbounds nuw i8, ptr %0, i64 7048
  store i16 0, ptr %72, align 8, !tbaa !23
  store i32 0, ptr %5, align 4, !tbaa !24
  %73 = trunc i64 %2 to i8
  %74 = getelementptr inbounds nuw i8, ptr %0, i64 16
  %75 = load ptr, ptr %74, align 16, !tbaa !31
  %76 = getelementptr inbounds nuw i8, ptr %0, i64 40
  %77 = load i32, ptr %76, align 8, !tbaa !32
  %78 = add i32 %77, 1
  store i32 %78, ptr %76, align 8, !tbaa !32
  %79 = zext i32 %77 to i64
  %80 = getelementptr inbounds nuw i8, ptr %75, i64 %79
  store i8 %73, ptr %80, align 1, !tbaa !25
  %81 = lshr i64 %2, 8
  %82 = trunc i64 %81 to i8
  %83 = load ptr, ptr %74, align 16, !tbaa !31
  %84 = load i32, ptr %76, align 8, !tbaa !32
  %85 = add i32 %84, 1
  store i32 %85, ptr %76, align 8, !tbaa !32
  %86 = zext i32 %84 to i64
  %87 = getelementptr inbounds nuw i8, ptr %83, i64 %86
  store i8 %82, ptr %87, align 1, !tbaa !25
  %88 = xor i32 %45, 65535
  %89 = trunc i32 %88 to i8
  %90 = load ptr, ptr %74, align 16, !tbaa !31
  %91 = load i32, ptr %76, align 8, !tbaa !32
  %92 = add i32 %91, 1
  store i32 %92, ptr %76, align 8, !tbaa !32
  %93 = zext i32 %91 to i64
  %94 = getelementptr inbounds nuw i8, ptr %90, i64 %93
  store i8 %89, ptr %94, align 1, !tbaa !25
  %95 = lshr i32 %88, 8
  %96 = trunc i32 %95 to i8
  %97 = load ptr, ptr %74, align 16, !tbaa !31
  %98 = load i32, ptr %76, align 8, !tbaa !32
  %99 = add i32 %98, 1
  store i32 %99, ptr %76, align 8, !tbaa !32
  %100 = zext i32 %98 to i64
  %101 = getelementptr inbounds nuw i8, ptr %97, i64 %100
  store i8 %96, ptr %101, align 1, !tbaa !25
  %.not18.i = icmp eq i32 %45, 0
  br i1 %.not18.i, label %copy_block.exit, label %.lr.ph.i

.lr.ph.i:                                         ; preds = %bi_windup.exit.i, %.lr.ph.i
  %.020.i = phi ptr [ %103, %.lr.ph.i ], [ %1, %bi_windup.exit.i ]
  %.01719.i = phi i32 [ %102, %.lr.ph.i ], [ %45, %bi_windup.exit.i ]
  %102 = add i32 %.01719.i, -1
  %103 = getelementptr inbounds nuw i8, ptr %.020.i, i64 1
  %104 = load i8, ptr %.020.i, align 1, !tbaa !25
  %105 = load ptr, ptr %74, align 16, !tbaa !31
  %106 = load i32, ptr %76, align 8, !tbaa !32
  %107 = add i32 %106, 1
  store i32 %107, ptr %76, align 8, !tbaa !32
  %108 = zext i32 %106 to i64
  %109 = getelementptr inbounds nuw i8, ptr %105, i64 %108
  store i8 %104, ptr %109, align 1, !tbaa !25
  %.not.i = icmp eq i32 %102, 0
  br i1 %.not.i, label %copy_block.exit, label %.lr.ph.i, !llvm.loop !33

copy_block.exit:                                  ; preds = %.lr.ph.i, %bi_windup.exit.i
  ret void
}